; Function Attrs: mustprogress uwtable
define void @_ZN6duckdb10VarSampFun11GetFunctionEv(ptr dead_on_unwind noalias writable sret(%"class.duckdb::AggregateFunction") align 8 %0) local_unnamed_addr #0 align 2 personality ptr @__gxx_personality_v0 {
  %2 = alloca %"struct.duckdb::LogicalType", align 8
  %3 = alloca %"struct.duckdb::LogicalType", align 8
  call void @llvm.lifetime.start.p0(i64 24, ptr nonnull %2) #21
  call void @_ZN6duckdb11LogicalTypeC1ENS_13LogicalTypeIdE(ptr noundef nonnull align 8 dereferenceable(24) %2, i8 noundef zeroext 23)
  invoke void @_ZN6duckdb11LogicalTypeC1ENS_13LogicalTypeIdE(ptr noundef nonnull align 8 dereferenceable(24) %3, i8 noundef zeroext 23)
          to label %4 unwind label %6

4:                                                ; preds = %1
  invoke void @_ZN6duckdb17AggregateFunction14UnaryAggregateINS_11StddevStateEddNS_16VarSampOperationELNS_23AggregateDestructorTypeE0EEES0_RKNS_11LogicalTypeES5_NS_20FunctionNullHandlingE(ptr dead_on_unwind writable sret(%"class.duckdb::AggregateFunction") align 8 %0, ptr noundef nonnull align 8 dereferenceable(24) %2, ptr noundef nonnull %3, i8 noundef zeroext 0)
          to label %5 unwind label %8

5:                                                ; preds = %4
  call void @_ZN6duckdb11LogicalTypeD1Ev(ptr noundef nonnull align 8 dereferenceable(24) %3) #21
  call void @_ZN6duckdb11LogicalTypeD1Ev(ptr noundef nonnull align 8 dereferenceable(24) %2) #21
  call void @llvm.lifetime.end.p0(i64 24, ptr nonnull %2) #21
  ret void

6:                                                ; preds = %1
  %7 = landingpad { ptr, i32 }
          cleanup
  br label %10

8:                                                ; preds = %4
  %9 = landingpad { ptr, i32 }
          cleanup
  call void @_ZN6duckdb11LogicalTypeD1Ev(ptr noundef nonnull align 8 dereferenceable(24) %3) #21
  br label %10

10:                                               ; preds = %8, %6
  %.pn = phi { ptr, i32 } [ %9, %8 ], [ %7, %6 ]
  call void @_ZN6duckdb11LogicalTypeD1Ev(ptr noundef nonnull align 8 dereferenceable(24) %2) #21
  call void @llvm.lifetime.end.p0(i64 24, ptr nonnull %2) #21
  resume { ptr, i32 } %.pn
}